; Function Attrs: nounwind uwtable
define i32 @BIO_nwrite0(ptr noundef %0, ptr noundef %1) local_unnamed_addr #1 {
  %3 = getelementptr inbounds nuw i8, ptr %0, i64 40
  %4 = load i32, ptr %3, align 8, !tbaa !8
  %.not = icmp eq i32 %4, 0
  br i1 %.not, label %5, label %6

5:                                                ; preds = %2
  tail call void @ERR_new() #8
  tail call void @ERR_set_debug(ptr noundef nonnull @.str, i32 noundef 778, ptr noundef nonnull @__func__.BIO_nwrite0) #8
  tail call void (i32, i32, ptr, ...) @ERR_set_error(i32 noundef 32, i32 noundef 120, ptr noundef null) #8
  br label %8

6:                                                ; preds = %2
  %7 = tail call i64 @BIO_ctrl(ptr noundef nonnull %0, i32 noundef 145, i64 noundef 0, ptr noundef %1) #8
  %spec.select6 = tail call i64 @llvm.smin.i64(i64 %7, i64 2147483647)
  %spec.select = trunc i64 %spec.select6 to i32
  br label %8

8:                                                ; preds = %6, %5
  %.0 = phi i32 [ -2, %5 ], [ %spec.select, %6 ]
  ret i32 %.0
}